; ModuleID = '22/743.c'
source_filename = "22/743.c"
target datalayout = "e-m:e-p270:32:32-p271:32:32-p272:64:64-i64:64-f80:128-n8:16:32:64-S128"
target triple = "x86_64-pc-linux-gnu"

@.str = private unnamed_addr constant [5 x i8] c"%d%c\00", align 1
@.str.1 = private unnamed_addr constant [3 x i8] c"No\00", align 1
@.str.2 = private unnamed_addr constant [3 x i8] c"%d\00", align 1

; Function Attrs: noinline nounwind uwtable
define dso_local i32 @main() #0 {
  %1 = alloca i32, align 4
  %2 = alloca [300 x i32], align 16
  %3 = alloca i8, align 1
  %4 = alloca i32, align 4
  %5 = alloca i32, align 4
  %6 = alloca i32, align 4
  %7 = alloca i32, align 4
  %8 = alloca i32, align 4
  %9 = alloca i32, align 4
  store i32 0, i32* %1, align 4
  store i32 0, i32* %4, align 4
  br label %10

10:                                               ; preds = %24, %0
  %11 = load i32, i32* %4, align 4
  %12 = icmp slt i32 %11, 300
  br i1 %12, label %13, label %27

13:                                               ; preds = %10
  %14 = load i32, i32* %4, align 4
  %15 = sext i32 %14 to i64
  %16 = getelementptr inbounds [300 x i32], [300 x i32]* %2, i64 0, i64 %15
  %17 = call i32 (i8*, ...) @__isoc99_scanf(i8* getelementptr inbounds ([5 x i8], [5 x i8]* @.str, i64 0, i64 0), i32* %16, i8* %3)
  %18 = load i8, i8* %3, align 1
  %19 = sext i8 %18 to i32
  %20 = icmp ne i32 %19, 44
  br i1 %20, label %21, label %23

21:                                               ; preds = %13
  %22 = load i32, i32* %4, align 4
  store i32 %22, i32* %6, align 4
  br label %27

23:                                               ; preds = %13
  br label %24

24:                                               ; preds = %23
  %25 = load i32, i32* %4, align 4
  %26 = add nsw i32 %25, 1
  store i32 %26, i32* %4, align 4
  br label %10

27:                                               ; preds = %21, %10
  %28 = load i32, i32* %6, align 4
  %29 = icmp eq i32 %28, 0
  br i1 %29, label %30, label %32

30:                                               ; preds = %27
  %31 = call i32 (i8*, ...) @printf(i8* getelementptr inbounds ([3 x i8], [3 x i8]* @.str.1, i64 0, i64 0))
  br label %131

32:                                               ; preds = %27
  store i32 1, i32* %4, align 4
  br label %33

33:                                               ; preds = %70, %32
  %34 = load i32, i32* %4, align 4
  %35 = load i32, i32* %6, align 4
  %36 = icmp sle i32 %34, %35
  br i1 %36, label %37, label %73

37:                                               ; preds = %33
  %38 = load i32, i32* %4, align 4
  %39 = sext i32 %38 to i64
  %40 = getelementptr inbounds [300 x i32], [300 x i32]* %2, i64 0, i64 %39
  %41 = load i32, i32* %40, align 4
  %42 = getelementptr inbounds [300 x i32], [300 x i32]* %2, i64 0, i64 0
  %43 = load i32, i32* %42, align 16
  %44 = icmp slt i32 %41, %43
  br i1 %44, label %45, label %53

45:                                               ; preds = %37
  %46 = getelementptr inbounds [300 x i32], [300 x i32]* %2, i64 0, i64 0
  %47 = load i32, i32* %46, align 16
  store i32 %47, i32* %8, align 4
  %48 = load i32, i32* %4, align 4
  %49 = sext i32 %48 to i64
  %50 = getelementptr inbounds [300 x i32], [300 x i32]* %2, i64 0, i64 %49
  %51 = load i32, i32* %50, align 4
  store i32 %51, i32* %9, align 4
  %52 = load i32, i32* %4, align 4
  store i32 %52, i32* %7, align 4
  br label %73

53:                                               ; preds = %37
  %54 = load i32, i32* %4, align 4
  %55 = sext i32 %54 to i64
  %56 = getelementptr inbounds [300 x i32], [300 x i32]* %2, i64 0, i64 %55
  %57 = load i32, i32* %56, align 4
  %58 = getelementptr inbounds [300 x i32], [300 x i32]* %2, i64 0, i64 0
  %59 = load i32, i32* %58, align 16
  %60 = icmp sgt i32 %57, %59
  br i1 %60, label %61, label %69

61:                                               ; preds = %53
  %62 = load i32, i32* %4, align 4
  %63 = sext i32 %62 to i64
  %64 = getelementptr inbounds [300 x i32], [300 x i32]* %2, i64 0, i64 %63
  %65 = load i32, i32* %64, align 4
  store i32 %65, i32* %8, align 4
  %66 = getelementptr inbounds [300 x i32], [300 x i32]* %2, i64 0, i64 0
  %67 = load i32, i32* %66, align 16
  store i32 %67, i32* %9, align 4
  %68 = load i32, i32* %4, align 4
  store i32 %68, i32* %7, align 4
  br label %73

69:                                               ; preds = %53
  br label %70

70:                                               ; preds = %69
  %71 = load i32, i32* %4, align 4
  %72 = add nsw i32 %71, 1
  store i32 %72, i32* %4, align 4
  br label %33

73:                                               ; preds = %61, %45, %33
  %74 = load i32, i32* %4, align 4
  %75 = load i32, i32* %6, align 4
  %76 = add nsw i32 %75, 1
  %77 = icmp eq i32 %74, %76
  br i1 %77, label %78, label %82

78:                                               ; preds = %73
  %79 = call i32 (i8*, ...) @printf(i8* getelementptr inbounds ([3 x i8], [3 x i8]* @.str.1, i64 0, i64 0))
  %80 = load i32, i32* %6, align 4
  %81 = add nsw i32 %80, 1
  store i32 %81, i32* %7, align 4
  br label %130

82:                                               ; preds = %73
  %83 = load i32, i32* %7, align 4
  %84 = add nsw i32 %83, 1
  store i32 %84, i32* %5, align 4
  br label %85

85:                                               ; preds = %124, %82
  %86 = load i32, i32* %5, align 4
  %87 = load i32, i32* %6, align 4
  %88 = icmp sle i32 %86, %87
  br i1 %88, label %89, label %127

89:                                               ; preds = %85
  %90 = load i32, i32* %5, align 4
  %91 = sext i32 %90 to i64
  %92 = getelementptr inbounds [300 x i32], [300 x i32]* %2, i64 0, i64 %91
  %93 = load i32, i32* %92, align 4
  %94 = load i32, i32* %8, align 4
  %95 = icmp sgt i32 %93, %94
  br i1 %95, label %96, label %102

96:                                               ; preds = %89
  %97 = load i32, i32* %8, align 4
  store i32 %97, i32* %9, align 4
  %98 = load i32, i32* %5, align 4
  %99 = sext i32 %98 to i64
  %100 = getelementptr inbounds [300 x i32], [300 x i32]* %2, i64 0, i64 %99
  %101 = load i32, i32* %100, align 4
  store i32 %101, i32* %8, align 4
  br label %123

102:                                              ; preds = %89
  %103 = load i32, i32* %5, align 4
  %104 = sext i32 %103 to i64
  %105 = getelementptr inbounds [300 x i32], [300 x i32]* %2, i64 0, i64 %104
  %106 = load i32, i32* %105, align 4
  %107 = load i32, i32* %9, align 4
  %108 = icmp sgt i32 %106, %107
  br i1 %108, label %109, label %121

109:                                              ; preds = %102
  %110 = load i32, i32* %5, align 4
  %111 = sext i32 %110 to i64
  %112 = getelementptr inbounds [300 x i32], [300 x i32]* %2, i64 0, i64 %111
  %113 = load i32, i32* %112, align 4
  %114 = load i32, i32* %8, align 4
  %115 = icmp slt i32 %113, %114
  br i1 %115, label %116, label %121

116:                                              ; preds = %109
  %117 = load i32, i32* %5, align 4
  %118 = sext i32 %117 to i64
  %119 = getelementptr inbounds [300 x i32], [300 x i32]* %2, i64 0, i64 %118
  %120 = load i32, i32* %119, align 4
  store i32 %120, i32* %9, align 4
  br label %122

121:                                              ; preds = %109, %102
  br label %124

122:                                              ; preds = %116
  br label %123

123:                                              ; preds = %122, %96
  br label %124

124:                                              ; preds = %123, %121
  %125 = load i32, i32* %5, align 4
  %126 = add nsw i32 %125, 1
  store i32 %126, i32* %5, align 4
  br label %85

127:                                              ; preds = %85
  %128 = load i32, i32* %9, align 4
  %129 = call i32 (i8*, ...) @printf(i8* getelementptr inbounds ([3 x i8], [3 x i8]* @.str.2, i64 0, i64 0), i32 %128)
  br label %130

130:                                              ; preds = %127, %78
  br label %131

131:                                              ; preds = %130, %30
  ret i32 0
}

declare dso_local i32 @__isoc99_scanf(i8*, ...) #1

declare dso_local i32 @printf(i8*, ...) #1


!llvm.module.flags = !{!0}
!llvm.ident = !{!1}

!0 = !{i32 1, !"wchar_size", i32 4}
!1 = !{!"clang version 10.0.0-4ubuntu1 "}
